; Function Attrs: mustprogress uwtable
define hidden void @_ZN3p2t5Sweep11TriangulateERNS_12SweepContextE(ptr noundef nonnull align 8 dereferenceable(24) %0, ptr noundef nonnull align 8 dereferenceable(200) %1) local_unnamed_addr #2 align 2 {
  tail call void @_ZN3p2t12SweepContext17InitTriangulationEv(ptr noundef nonnull align 8 dereferenceable(200) %1)
  tail call void @_ZN3p2t12SweepContext20CreateAdvancingFrontEv(ptr noundef nonnull align 8 dereferenceable(200) %1)
  tail call void @_ZN3p2t5Sweep11SweepPointsERNS_12SweepContextE(ptr noundef nonnull align 8 dereferenceable(24) %0, ptr noundef nonnull align 8 dereferenceable(200) %1)
  %3 = getelementptr inbounds nuw i8, ptr %1, i64 152
  %4 = load ptr, ptr %3, align 8
  %5 = load ptr, ptr %4, align 8
  %6 = getelementptr inbounds nuw i8, ptr %5, i64 16
  %7 = load ptr, ptr %6, align 8
  %8 = getelementptr inbounds nuw i8, ptr %7, i64 8
  %9 = load ptr, ptr %8, align 8
  %10 = load ptr, ptr %7, align 8
  %.not12.i = icmp eq ptr %9, null
  br i1 %.not12.i, label %_ZN3p2t5Sweep19FinalizationPolygonERNS_12SweepContextE.exit, label %.lr.ph.i

.lr.ph.i:                                         ; preds = %2, %12
  %.013.i = phi ptr [ %13, %12 ], [ %9, %2 ]
  %11 = tail call noundef zeroext i1 @_ZN3p2t8Triangle20GetConstrainedEdgeCWERKNS_5PointE(ptr noundef nonnull align 8 dereferenceable(57) %.013.i, ptr noundef nonnull align 8 dereferenceable(40) %10)
  br i1 %11, label %.critedge.i, label %12

12:                                               ; preds = %.lr.ph.i
  %13 = tail call noundef ptr @_ZN3p2t8Triangle11NeighborCCWERKNS_5PointE(ptr noundef nonnull align 8 dereferenceable(57) %.013.i, ptr noundef nonnull align 8 dereferenceable(40) %10)
  %.not.i = icmp eq ptr %13, null
  br i1 %.not.i, label %_ZN3p2t5Sweep19FinalizationPolygonERNS_12SweepContextE.exit, label %.lr.ph.i, !llvm.loop !3

.critedge.i:                                      ; preds = %.lr.ph.i
  tail call void @_ZN3p2t12SweepContext9MeshCleanERNS_8TriangleE(ptr noundef nonnull align 8 dereferenceable(200) %1, ptr noundef nonnull align 8 dereferenceable(57) %.013.i)
  br label %_ZN3p2t5Sweep19FinalizationPolygonERNS_12SweepContextE.exit

_ZN3p2t5Sweep19FinalizationPolygonERNS_12SweepContextE.exit: ; preds = %12, %2, %.critedge.i
  ret void
}